; Function Attrs: nounwind uwtable
define dso_local void @llvm_attribute_add_string(ptr nocapture noundef readonly %0, ptr noundef %1, ptr noundef %2, ptr noundef %3, i32 noundef %4) local_unnamed_addr #0 {
  %6 = getelementptr inbounds i8, ptr %0, i64 40
  %7 = load ptr, ptr %6, align 8
  %8 = tail call i64 @strlen(ptr noundef nonnull dereferenceable(1) %2) #11
  %9 = trunc i64 %8 to i32
  %10 = tail call i64 @strlen(ptr noundef nonnull dereferenceable(1) %3) #11
  %11 = trunc i64 %10 to i32
  %12 = tail call ptr @LLVMCreateStringAttribute(ptr noundef %7, ptr noundef %2, i32 noundef %9, ptr noundef %3, i32 noundef %11) #10
  tail call void @LLVMAddAttributeAtIndex(ptr noundef %1, i32 noundef %4, ptr noundef %12) #10
  ret void
}